; Function Attrs: mustprogress uwtable
define void @_ZN2cv4gapi4mulCERKNS_4GMatEdi(ptr dead_on_unwind noalias writable sret(%"class.cv::GMat") align 8 %0, ptr noundef nonnull readonly align 8 captures(none) dereferenceable(16) %1, double noundef %2, i32 noundef %3) local_unnamed_addr #3 personality ptr @__gxx_personality_v0 {
  %5 = alloca %"class.cv::GMat", align 8
  %6 = load ptr, ptr %1, align 8, !tbaa !3
  store ptr %6, ptr %5, align 8, !tbaa !3
  %7 = getelementptr inbounds nuw i8, ptr %5, i64 8
  %8 = getelementptr inbounds nuw i8, ptr %1, i64 8
  %9 = load ptr, ptr %8, align 8, !tbaa !11
  store ptr %9, ptr %7, align 8, !tbaa !11
  %.not.i.i.i.i = icmp eq ptr %9, null
  br i1 %.not.i.i.i.i, label %_ZN2cv4GMatC2ERKS0_.exit, label %10

10:                                               ; preds = %4
  %11 = getelementptr inbounds nuw i8, ptr %9, i64 8
  %12 = load i8, ptr @__libc_single_threaded, align 1, !tbaa !12
  %.not.i.i.i.i.i = icmp eq i8 %12, 0
  br i1 %.not.i.i.i.i.i, label %16, label %13

13:                                               ; preds = %10
  %14 = load i32, ptr %11, align 4, !tbaa !13
  %15 = add nsw i32 %14, 1
  store i32 %15, ptr %11, align 4, !tbaa !13
  br label %_ZN2cv4GMatC2ERKS0_.exit

16:                                               ; preds = %10
  %17 = atomicrmw volatile add ptr %11, i32 1 acq_rel, align 4
  br label %_ZN2cv4GMatC2ERKS0_.exit

_ZN2cv4GMatC2ERKS0_.exit:                         ; preds = %4, %13, %16
  invoke void @_ZN2cv11GKernelTypeINS_4gapi4core8GMulCOldESt8functionIFNS_4GMatES5_diEEE2onES5_di(ptr dead_on_unwind writable sret(%"class.cv::GMat") align 8 %0, ptr noundef nonnull %5, double noundef %2, i32 noundef %3)
          to label %18 unwind label %41

18:                                               ; preds = %_ZN2cv4GMatC2ERKS0_.exit
  %19 = load ptr, ptr %7, align 8, !tbaa !11
  %.not.i.i.i = icmp eq ptr %19, null
  br i1 %.not.i.i.i, label %_ZN2cv4GMatD2Ev.exit, label %20

20:                                               ; preds = %18
  %21 = getelementptr inbounds nuw i8, ptr %19, i64 8
  %22 = load atomic i64, ptr %21 acquire, align 8
  %23 = icmp eq i64 %22, 4294967297
  %24 = trunc i64 %22 to i32
  br i1 %23, label %25, label %33

25:                                               ; preds = %20
  store i32 0, ptr %21, align 8, !tbaa !15
  %26 = getelementptr inbounds nuw i8, ptr %19, i64 12
  store i32 0, ptr %26, align 4, !tbaa !17
  %27 = load ptr, ptr %19, align 8, !tbaa !18
  %28 = getelementptr inbounds nuw i8, ptr %27, i64 16
  %29 = load ptr, ptr %28, align 8
  call void %29(ptr noundef nonnull align 8 dereferenceable(16) %19) #23
  %30 = load ptr, ptr %19, align 8, !tbaa !18
  %31 = getelementptr inbounds nuw i8, ptr %30, i64 24
  %32 = load ptr, ptr %31, align 8
  call void %32(ptr noundef nonnull align 8 dereferenceable(16) %19) #23
  br label %_ZN2cv4GMatD2Ev.exit

33:                                               ; preds = %20
  %34 = load i8, ptr @__libc_single_threaded, align 1, !tbaa !12
  %.not.i.i.i.i4 = icmp eq i8 %34, 0
  br i1 %.not.i.i.i.i4, label %37, label %35

35:                                               ; preds = %33
  %36 = add nsw i32 %24, -1
  store i32 %36, ptr %21, align 4, !tbaa !13
  br label %_ZN9__gnu_cxx27__exchange_and_add_dispatchEPii.exit.i.i.i.i

37:                                               ; preds = %33
  %38 = atomicrmw volatile add ptr %21, i32 -1 acq_rel, align 4
  br label %_ZN9__gnu_cxx27__exchange_and_add_dispatchEPii.exit.i.i.i.i

_ZN9__gnu_cxx27__exchange_and_add_dispatchEPii.exit.i.i.i.i: ; preds = %37, %35
  %.0.i.i.i.i.i = phi i32 [ %24, %35 ], [ %38, %37 ]
  %39 = icmp eq i32 %.0.i.i.i.i.i, 1
  br i1 %39, label %40, label %_ZN2cv4GMatD2Ev.exit, !prof !20

40:                                               ; preds = %_ZN9__gnu_cxx27__exchange_and_add_dispatchEPii.exit.i.i.i.i
  call void @_ZNSt16_Sp_counted_baseILN9__gnu_cxx12_Lock_policyE2EE24_M_release_last_use_coldEv(ptr noundef nonnull align 8 dereferenceable(16) %19) #23
  br label %_ZN2cv4GMatD2Ev.exit

_ZN2cv4GMatD2Ev.exit:                             ; preds = %18, %25, %_ZN9__gnu_cxx27__exchange_and_add_dispatchEPii.exit.i.i.i.i, %40
  ret void

41:                                               ; preds = %_ZN2cv4GMatC2ERKS0_.exit
  %42 = landingpad { ptr, i32 }
          cleanup
  call void @_ZN2cv4GMatD2Ev(ptr noundef nonnull align 8 dereferenceable(16) %5) #23
  resume { ptr, i32 } %42
}